target datalayout = "e-m:e-p270:32:32-p271:32:32-p272:64:64-i64:64-i128:128-f80:128-n8:16:32:64-S128"
target triple = "x86_64-pc-linux-gnu"

%struct.jsmntok_t = type { i32, i32, i32, i32 }

@rpcid = internal global i32 0, align 4
@.str.83 = private unnamed_addr constant [5 x i8] c"name\00", align 1
@.str.84 = private unnamed_addr constant [6 x i8] c"value\00", align 1
@.str.218 = private unnamed_addr constant [1 x i8] zeroinitializer, align 1
@.str.442 = private unnamed_addr constant [24 x i8] c"Preference name missing\00", align 1
@.str.443 = private unnamed_addr constant [25 x i8] c"Preference value missing\00", align 1
@.str.444 = private unnamed_addr constant [6 x i8] c"%s:%s\00", align 1
@.str.445 = private unnamed_addr constant [37 x i8] c"The preference specified is obsolete\00", align 1
@.str.446 = private unnamed_addr constant [26 x i8] c"No such preference exists\00", align 1
@.str.447 = private unnamed_addr constant [33 x i8] c"Unable to set the preference%s%s\00", align 1
@.str.448 = private unnamed_addr constant [3 x i8] c": \00", align 1

; Function Attrs: nounwind null_pointer_is_valid sspstrong uwtable
define internal ptr @json_find_attr(ptr noundef %0, ptr noundef %1, i32 noundef %2, ptr noundef %3) #7 {
  %5 = alloca ptr, align 8
  %6 = alloca ptr, align 8
  %7 = alloca ptr, align 8
  %8 = alloca i32, align 4
  %9 = alloca ptr, align 8
  %10 = alloca i32, align 4
  %11 = alloca ptr, align 8
  %12 = alloca ptr, align 8
  %13 = alloca i32, align 4
  store ptr %0, ptr %6, align 8
  store ptr %1, ptr %7, align 8
  store i32 %2, ptr %8, align 4
  store ptr %3, ptr %9, align 8
  call void @llvm.lifetime.start.p0(i64 4, ptr %10) #21
  store i32 0, ptr %10, align 4
  br label %14

14:                                               ; preds = %49, %4
  %15 = load i32, ptr %10, align 4
  %16 = load i32, ptr %8, align 4
  %17 = icmp slt i32 %15, %16
  br i1 %17, label %18, label %52

18:                                               ; preds = %14
  call void @llvm.lifetime.start.p0(i64 8, ptr %11) #21
  %19 = load ptr, ptr %6, align 8
  %20 = load ptr, ptr %7, align 8
  %21 = load i32, ptr %10, align 4
  %22 = add i32 %21, 0
  %23 = sext i32 %22 to i64
  %24 = getelementptr %struct.jsmntok_t, ptr %20, i64 %23
  %25 = getelementptr inbounds nuw %struct.jsmntok_t, ptr %24, i32 0, i32 1
  %26 = load i32, ptr %25, align 4
  %27 = sext i32 %26 to i64
  %28 = getelementptr i8, ptr %19, i64 %27
  store ptr %28, ptr %11, align 8
  call void @llvm.lifetime.start.p0(i64 8, ptr %12) #21
  %29 = load ptr, ptr %6, align 8
  %30 = load ptr, ptr %7, align 8
  %31 = load i32, ptr %10, align 4
  %32 = add i32 %31, 1
  %33 = sext i32 %32 to i64
  %34 = getelementptr %struct.jsmntok_t, ptr %30, i64 %33
  %35 = getelementptr inbounds nuw %struct.jsmntok_t, ptr %34, i32 0, i32 1
  %36 = load i32, ptr %35, align 4
  %37 = sext i32 %36 to i64
  %38 = getelementptr i8, ptr %29, i64 %37
  store ptr %38, ptr %12, align 8
  %39 = load ptr, ptr %11, align 8
  %40 = load ptr, ptr %9, align 8
  %41 = call i32 @strcmp(ptr noundef %39, ptr noundef %40) #22
  %42 = icmp ne i32 %41, 0
  br i1 %42, label %45, label %43

43:                                               ; preds = %18
  %44 = load ptr, ptr %12, align 8
  store ptr %44, ptr %5, align 8
  store i32 1, ptr %13, align 4
  br label %46

45:                                               ; preds = %18
  store i32 0, ptr %13, align 4
  br label %46

46:                                               ; preds = %45, %43
  call void @llvm.lifetime.end.p0(i64 8, ptr %12) #21
  call void @llvm.lifetime.end.p0(i64 8, ptr %11) #21
  %47 = load i32, ptr %13, align 4
  switch i32 %47, label %53 [
    i32 0, label %48
  ]

48:                                               ; preds = %46
  br label %49

49:                                               ; preds = %48
  %50 = load i32, ptr %10, align 4
  %51 = add i32 %50, 2
  store i32 %51, ptr %10, align 4
  br label %14, !llvm.loop !18

52:                                               ; preds = %14
  store ptr null, ptr %5, align 8
  store i32 1, ptr %13, align 4
  br label %53

53:                                               ; preds = %52, %46
  call void @llvm.lifetime.end.p0(i64 4, ptr %10) #21
  %54 = load ptr, ptr %5, align 8
  ret ptr %54
}

; Function Attrs: null_pointer_is_valid sspstrong uwtable
define internal void @sharkd_session_process_setconf(ptr noundef %0, ptr noundef %1, i32 noundef %2) #0 {
  %4 = alloca ptr, align 8
  %5 = alloca ptr, align 8
  %6 = alloca i32, align 4
  %7 = alloca ptr, align 8
  %8 = alloca ptr, align 8
  %9 = alloca [4096 x i8], align 16
  %10 = alloca ptr, align 8
  %11 = alloca i32, align 4
  %12 = alloca i32, align 4
  store ptr %0, ptr %4, align 8
  store ptr %1, ptr %5, align 8
  store i32 %2, ptr %6, align 4
  call void @llvm.lifetime.start.p0(i64 8, ptr %7) #21
  %13 = load ptr, ptr %4, align 8
  %14 = load ptr, ptr %5, align 8
  %15 = load i32, ptr %6, align 4
  %16 = call ptr @json_find_attr(ptr noundef %13, ptr noundef %14, i32 noundef %15, ptr noundef @.str.83)
  store ptr %16, ptr %7, align 8
  call void @llvm.lifetime.start.p0(i64 8, ptr %8) #21
  %17 = load ptr, ptr %4, align 8
  %18 = load ptr, ptr %5, align 8
  %19 = load i32, ptr %6, align 4
  %20 = call ptr @json_find_attr(ptr noundef %17, ptr noundef %18, i32 noundef %19, ptr noundef @.str.84)
  store ptr %20, ptr %8, align 8
  call void @llvm.lifetime.start.p0(i64 4096, ptr %9) #21
  call void @llvm.lifetime.start.p0(i64 8, ptr %10) #21
  store ptr null, ptr %10, align 8
  call void @llvm.lifetime.start.p0(i64 4, ptr %11) #21
  %21 = load ptr, ptr %7, align 8
  %22 = icmp ne ptr %21, null
  br i1 %22, label %23, label %29

23:                                               ; preds = %3
  %24 = load ptr, ptr %7, align 8
  %25 = getelementptr i8, ptr %24, i64 0
  %26 = load i8, ptr %25, align 1
  %27 = sext i8 %26 to i32
  %28 = icmp eq i32 %27, 0
  br i1 %28, label %29, label %31

29:                                               ; preds = %23, %3
  %30 = load i32, ptr @rpcid, align 4
  call void (i32, i32, ptr, ptr, ...) @sharkd_json_error(i32 noundef %30, i32 noundef -4001, ptr noundef null, ptr noundef @.str.442)
  store i32 1, ptr %12, align 4
  br label %64

31:                                               ; preds = %23
  %32 = load ptr, ptr %8, align 8
  %33 = icmp ne ptr %32, null
  br i1 %33, label %36, label %34

34:                                               ; preds = %31
  %35 = load i32, ptr @rpcid, align 4
  call void (i32, i32, ptr, ptr, ...) @sharkd_json_error(i32 noundef %35, i32 noundef -4002, ptr noundef null, ptr noundef @.str.443)
  store i32 1, ptr %12, align 4
  br label %64

36:                                               ; preds = %31
  %37 = getelementptr inbounds [4096 x i8], ptr %9, i64 0, i64 0
  %38 = load ptr, ptr %7, align 8
  %39 = load ptr, ptr %8, align 8
  %40 = call i32 (ptr, i64, i32, i64, ptr, ...) @__snprintf_chk(ptr noundef %37, i64 noundef 4096, i32 noundef 2, i64 noundef 4096, ptr noundef @.str.444, ptr noundef %38, ptr noundef %39)
  %41 = getelementptr inbounds [4096 x i8], ptr %9, i64 0, i64 0
  %42 = call i32 @prefs_set_pref(ptr noundef %41, ptr noundef %10)
  store i32 %42, ptr %11, align 4
  %43 = load i32, ptr %11, align 4
  switch i32 %43, label %50 [
    i32 0, label %44
    i32 3, label %46
    i32 2, label %48
  ]

44:                                               ; preds = %36
  %45 = load i32, ptr @rpcid, align 4
  call void @sharkd_json_simple_ok(i32 noundef %45)
  br label %62

46:                                               ; preds = %36
  %47 = load i32, ptr @rpcid, align 4
  call void (i32, i32, ptr, ptr, ...) @sharkd_json_error(i32 noundef %47, i32 noundef -4003, ptr noundef null, ptr noundef @.str.445)
  br label %62

48:                                               ; preds = %36
  %49 = load i32, ptr @rpcid, align 4
  call void (i32, i32, ptr, ptr, ...) @sharkd_json_error(i32 noundef %49, i32 noundef -4004, ptr noundef null, ptr noundef @.str.446)
  br label %62

50:                                               ; preds = %36
  %51 = load i32, ptr @rpcid, align 4
  %52 = load ptr, ptr %10, align 8
  %53 = icmp ne ptr %52, null
  %54 = select i1 %53, ptr @.str.448, ptr @.str.218
  %55 = load ptr, ptr %10, align 8
  %56 = icmp ne ptr %55, null
  br i1 %56, label %57, label %59

57:                                               ; preds = %50
  %58 = load ptr, ptr %10, align 8
  br label %60

59:                                               ; preds = %50
  br label %60

60:                                               ; preds = %59, %57
  %61 = phi ptr [ %58, %57 ], [ @.str.218, %59 ]
  call void (i32, i32, ptr, ptr, ...) @sharkd_json_error(i32 noundef %51, i32 noundef -4005, ptr noundef null, ptr noundef @.str.447, ptr noundef %54, ptr noundef %61)
  br label %62

62:                                               ; preds = %60, %48, %46, %44
  %63 = load ptr, ptr %10, align 8
  call void @g_free(ptr noundef %63)
  store i32 0, ptr %12, align 4
  br label %64

64:                                               ; preds = %62, %34, %29
  call void @llvm.lifetime.end.p0(i64 4, ptr %11) #21
  call void @llvm.lifetime.end.p0(i64 8, ptr %10) #21
  call void @llvm.lifetime.end.p0(i64 4096, ptr %9) #21
  call void @llvm.lifetime.end.p0(i64 8, ptr %8) #21
  call void @llvm.lifetime.end.p0(i64 8, ptr %7) #21
  %65 = load i32, ptr %12, align 4
  switch i32 %65, label %67 [
    i32 0, label %66
    i32 1, label %66
  ]

66:                                               ; preds = %64, %64
  ret void

67:                                               ; preds = %64
  unreachable
}