; Function Attrs: null_pointer_is_valid sspstrong uwtable
define internal fastcc void @sharkd_session_process_setconf(ptr noundef %0, ptr noundef readonly captures(none) %1, i32 noundef range(i32 0, 2147483647) %2) unnamed_addr #0 {
  %4 = alloca [4096 x i8], align 16
  %5 = alloca ptr, align 8
  %.not.i = icmp eq i32 %2, 0
  br i1 %.not.i, label %json_find_attr.exit22.thread, label %.lr.ph.preheader.i

json_find_attr.exit22.thread:                     ; preds = %3
  call void @llvm.lifetime.start.p0(i64 4096, ptr nonnull %4) #17
  call void @llvm.lifetime.start.p0(i64 8, ptr nonnull %5) #17
  br label %36

.lr.ph.preheader.i:                               ; preds = %3
  %6 = zext nneg i32 %2 to i64
  br label %.lr.ph.i

.lr.ph.i:                                         ; preds = %18, %.lr.ph.preheader.i
  %indvars.iv.i = phi i64 [ 0, %.lr.ph.preheader.i ], [ %indvars.iv.next.i, %18 ]
  %7 = getelementptr %struct.jsmntok_t, ptr %1, i64 %indvars.iv.i, i32 1
  %8 = load i32, ptr %7, align 4
  %9 = sext i32 %8 to i64
  %10 = getelementptr i8, ptr %0, i64 %9
  %11 = tail call i32 @strcmp(ptr noundef readonly %10, ptr noundef nonnull dereferenceable(5) @.str.83) #18
  %.not.not.i = icmp eq i32 %11, 0
  br i1 %.not.not.i, label %.thread.i, label %18

.thread.i:                                        ; preds = %.lr.ph.i
  %12 = and i64 %indvars.iv.i, 4294967294
  %13 = or disjoint i64 %12, 1
  %14 = getelementptr %struct.jsmntok_t, ptr %1, i64 %13, i32 1
  %15 = load i32, ptr %14, align 4
  %16 = sext i32 %15 to i64
  %17 = getelementptr i8, ptr %0, i64 %16
  br label %.lr.ph.preheader.i15

18:                                               ; preds = %.lr.ph.i
  %indvars.iv.next.i = add nuw nsw i64 %indvars.iv.i, 2
  %19 = icmp samesign ult i64 %indvars.iv.next.i, %6
  br i1 %19, label %.lr.ph.i, label %.lr.ph.preheader.i15, !llvm.loop !10

.lr.ph.preheader.i15:                             ; preds = %18, %.thread.i
  %.2.i = phi ptr [ %17, %.thread.i ], [ null, %18 ]
  br label %.lr.ph.i16

.lr.ph.i16:                                       ; preds = %31, %.lr.ph.preheader.i15
  %indvars.iv.i17 = phi i64 [ 0, %.lr.ph.preheader.i15 ], [ %indvars.iv.next.i19, %31 ]
  %20 = getelementptr %struct.jsmntok_t, ptr %1, i64 %indvars.iv.i17, i32 1
  %21 = load i32, ptr %20, align 4
  %22 = sext i32 %21 to i64
  %23 = getelementptr i8, ptr %0, i64 %22
  %24 = tail call i32 @strcmp(ptr noundef readonly %23, ptr noundef nonnull dereferenceable(6) @.str.84) #18
  %.not.not.i18 = icmp eq i32 %24, 0
  br i1 %.not.not.i18, label %.thread.i21, label %31

.thread.i21:                                      ; preds = %.lr.ph.i16
  %25 = and i64 %indvars.iv.i17, 4294967294
  %26 = or disjoint i64 %25, 1
  %27 = getelementptr %struct.jsmntok_t, ptr %1, i64 %26, i32 1
  %28 = load i32, ptr %27, align 4
  %29 = sext i32 %28 to i64
  %30 = getelementptr i8, ptr %0, i64 %29
  br label %json_find_attr.exit22

31:                                               ; preds = %.lr.ph.i16
  %indvars.iv.next.i19 = add nuw nsw i64 %indvars.iv.i17, 2
  %32 = icmp samesign ult i64 %indvars.iv.next.i19, %6
  br i1 %32, label %.lr.ph.i16, label %json_find_attr.exit22, !llvm.loop !10

json_find_attr.exit22:                            ; preds = %31, %.thread.i21
  %.2.i20 = phi ptr [ %30, %.thread.i21 ], [ null, %31 ]
  call void @llvm.lifetime.start.p0(i64 4096, ptr nonnull %4) #17
  call void @llvm.lifetime.start.p0(i64 8, ptr nonnull %5) #17
  store ptr null, ptr %5, align 8
  %.not = icmp eq ptr %.2.i, null
  br i1 %.not, label %36, label %33

33:                                               ; preds = %json_find_attr.exit22
  %34 = load i8, ptr %.2.i, align 1
  %35 = icmp eq i8 %34, 0
  br i1 %35, label %36, label %38

36:                                               ; preds = %json_find_attr.exit22.thread, %33, %json_find_attr.exit22
  %37 = load i32, ptr @rpcid, align 4
  tail call void (i32, i32, ptr, ptr, ...) @sharkd_json_error(i32 noundef %37, i32 noundef -4001, ptr poison, ptr noundef nonnull @.str.442)
  br label %54

38:                                               ; preds = %33
  %.not12 = icmp eq ptr %.2.i20, null
  br i1 %.not12, label %39, label %41

39:                                               ; preds = %38
  %40 = load i32, ptr @rpcid, align 4
  tail call void (i32, i32, ptr, ptr, ...) @sharkd_json_error(i32 noundef %40, i32 noundef -4002, ptr poison, ptr noundef nonnull @.str.443)
  br label %54

41:                                               ; preds = %38
  %42 = call i32 (ptr, i64, i32, i64, ptr, ...) @__snprintf_chk(ptr noundef nonnull %4, i64 noundef 4096, i32 noundef 2, i64 noundef 4096, ptr noundef nonnull @.str.444, ptr noundef nonnull %.2.i, ptr noundef nonnull %.2.i20)
  %43 = call i32 @prefs_set_pref(ptr noundef nonnull %4, ptr noundef nonnull %5)
  %44 = load i32, ptr @rpcid, align 4
  switch i32 %43, label %48 [
    i32 0, label %45
    i32 3, label %46
    i32 2, label %47
  ]

45:                                               ; preds = %41
  call fastcc void @sharkd_json_simple_ok(i32 noundef %44)
  br label %52

46:                                               ; preds = %41
  call void (i32, i32, ptr, ptr, ...) @sharkd_json_error(i32 noundef %44, i32 noundef -4003, ptr poison, ptr noundef nonnull @.str.445)
  br label %52

47:                                               ; preds = %41
  call void (i32, i32, ptr, ptr, ...) @sharkd_json_error(i32 noundef %44, i32 noundef -4004, ptr poison, ptr noundef nonnull @.str.446)
  br label %52

48:                                               ; preds = %41
  %49 = load ptr, ptr %5, align 8
  %.not13 = icmp eq ptr %49, null
  %50 = select i1 %.not13, ptr @.str.218, ptr @.str.448
  %51 = select i1 %.not13, ptr @.str.218, ptr %49
  call void (i32, i32, ptr, ptr, ...) @sharkd_json_error(i32 noundef %44, i32 noundef -4005, ptr poison, ptr noundef nonnull @.str.447, ptr noundef nonnull %50, ptr noundef nonnull %51)
  br label %52

52:                                               ; preds = %48, %47, %46, %45
  %53 = load ptr, ptr %5, align 8
  call void @g_free(ptr noundef %53)
  br label %54

54:                                               ; preds = %52, %39, %36
  call void @llvm.lifetime.end.p0(i64 8, ptr nonnull %5) #17
  call void @llvm.lifetime.end.p0(i64 4096, ptr nonnull %4) #17
  ret void
}